target datalayout = "e-m:e-p270:32:32-p271:32:32-p272:64:64-i64:64-i128:128-f80:128-n8:16:32:64-S128"
target triple = "x86_64-pc-linux-gnu"

%struct.RelationData = type { %struct.RelFileLocator, ptr, i32, i32, i8, i8, i8, i8, i8, i32, i32, i32, i32, ptr, ptr, i32, %struct.LockInfoData, ptr, ptr, ptr, ptr, ptr, i8, ptr, ptr, ptr, ptr, ptr, ptr, i32, ptr, i8, ptr, ptr, i32, i8, i32, ptr, i8, ptr, ptr, ptr, ptr, ptr, ptr, ptr, i32, ptr, ptr, ptr, ptr, ptr, ptr, ptr, ptr, ptr, ptr, ptr, ptr, ptr, ptr, ptr, ptr, ptr, ptr, ptr, i32, i8, ptr }
%struct.RelFileLocator = type { i32, i32, i32 }
%struct.LockInfoData = type { %struct.LockRelId }
%struct.LockRelId = type { i32, i32 }
%struct.Trigger = type { i32, ptr, i32, i16, i8, i8, i8, i32, i32, i32, i8, i8, i16, i16, ptr, ptr, ptr, ptr, ptr }
%struct.TriggerDesc = type { ptr, i32, i8, i8, i8, i8, i8, i8, i8, i8, i8, i8, i8, i8, i8, i8, i8, i8, i8, i8, i8, i8, i8 }
%struct.TriggerData = type { i32, i32, ptr, ptr, ptr, ptr, ptr, ptr, ptr, ptr, ptr }
%struct.ResultRelInfo = type { i32, i32, ptr, i32, ptr, ptr, i16, ptr, i8, ptr, ptr, ptr, i8, i8, ptr, ptr, ptr, ptr, ptr, ptr, ptr, ptr, ptr, ptr, i8, i32, i32, i32, ptr, ptr, ptr, ptr, ptr, ptr, ptr, i32, i32, ptr, ptr, ptr, ptr, [3 x ptr], ptr, ptr, ptr, i8, ptr, i8, ptr, ptr, ptr, ptr }
%struct.EState = type { i32, i32, ptr, ptr, ptr, i32, ptr, ptr, ptr, ptr, ptr, ptr, ptr, ptr, ptr, ptr, i32, ptr, ptr, ptr, ptr, ptr, ptr, ptr, ptr, ptr, ptr, i64, i64, i32, i32, i8, ptr, ptr, ptr, ptr, ptr, i8, i32, i32, ptr, i32, ptr, ptr, ptr, ptr }
%struct.ExprContext = type { i32, ptr, ptr, ptr, ptr, ptr, ptr, ptr, ptr, ptr, i64, i8, i64, i8, ptr, ptr, ptr, ptr }

@.str.2 = private unnamed_addr constant [10 x i8] c"trigger.c\00", align 1
@.str.62 = private unnamed_addr constant [47 x i8] c"BEFORE STATEMENT trigger cannot return a value\00", align 1
@__func__.ExecBSUpdateTriggers = private unnamed_addr constant [21 x i8] c"ExecBSUpdateTriggers\00", align 1

; Function Attrs: nounwind uwtable
define dso_local void @ExecBSUpdateTriggers(ptr noundef %0, ptr noundef %1) #0 {
  %3 = alloca ptr, align 8
  %4 = alloca ptr, align 8
  %5 = alloca ptr, align 8
  %6 = alloca i32, align 4
  %7 = alloca %struct.TriggerData, align 8
  %8 = alloca ptr, align 8
  %9 = alloca i32, align 4
  %10 = alloca ptr, align 8
  %11 = alloca ptr, align 8
  store ptr %0, ptr %3, align 8
  store ptr %1, ptr %4, align 8
  call void @llvm.lifetime.start.p0(i64 8, ptr %5) #12
  call void @llvm.lifetime.start.p0(i64 4, ptr %6) #12
  call void @llvm.lifetime.start.p0(i64 80, ptr %7) #12
  call void @llvm.memset.p0.i64(ptr align 8 %7, i8 0, i64 80, i1 false)
  call void @llvm.lifetime.start.p0(i64 8, ptr %8) #12
  %12 = load ptr, ptr %4, align 8
  %13 = getelementptr inbounds nuw %struct.ResultRelInfo, ptr %12, i32 0, i32 14
  %14 = load ptr, ptr %13, align 8
  store ptr %14, ptr %5, align 8
  %15 = load ptr, ptr %5, align 8
  %16 = icmp eq ptr %15, null
  br i1 %16, label %17, label %18

17:                                               ; preds = %2
  store i32 1, ptr %9, align 4
  br label %121

18:                                               ; preds = %2
  %19 = load ptr, ptr %5, align 8
  %20 = getelementptr inbounds nuw %struct.TriggerDesc, ptr %19, i32 0, i32 10
  %21 = load i8, ptr %20, align 4, !range !4, !noundef !5
  %22 = trunc i8 %21 to i1
  br i1 %22, label %24, label %23

23:                                               ; preds = %18
  store i32 1, ptr %9, align 4
  br label %121

24:                                               ; preds = %18
  %25 = load ptr, ptr %4, align 8
  %26 = getelementptr inbounds nuw %struct.ResultRelInfo, ptr %25, i32 0, i32 2
  %27 = load ptr, ptr %26, align 8
  %28 = getelementptr inbounds nuw %struct.RelationData, ptr %27, i32 0, i32 15
  %29 = load i32, ptr %28, align 8
  %30 = call zeroext i1 @before_stmt_triggers_fired(i32 noundef %29, i32 noundef 2)
  br i1 %30, label %31, label %32

31:                                               ; preds = %24
  store i32 1, ptr %9, align 4
  br label %121

32:                                               ; preds = %24
  %33 = load ptr, ptr %4, align 8
  %34 = load ptr, ptr %3, align 8
  %35 = call ptr @ExecGetAllUpdatedCols(ptr noundef %33, ptr noundef %34)
  store ptr %35, ptr %8, align 8
  %36 = getelementptr inbounds nuw %struct.TriggerData, ptr %7, i32 0, i32 0
  store i32 441, ptr %36, align 8
  %37 = getelementptr inbounds nuw %struct.TriggerData, ptr %7, i32 0, i32 1
  store i32 10, ptr %37, align 4
  %38 = load ptr, ptr %4, align 8
  %39 = getelementptr inbounds nuw %struct.ResultRelInfo, ptr %38, i32 0, i32 2
  %40 = load ptr, ptr %39, align 8
  %41 = getelementptr inbounds nuw %struct.TriggerData, ptr %7, i32 0, i32 2
  store ptr %40, ptr %41, align 8
  %42 = load ptr, ptr %8, align 8
  %43 = getelementptr inbounds nuw %struct.TriggerData, ptr %7, i32 0, i32 10
  store ptr %42, ptr %43, align 8
  store i32 0, ptr %6, align 4
  br label %44

44:                                               ; preds = %117, %32
  %45 = load i32, ptr %6, align 4
  %46 = load ptr, ptr %5, align 8
  %47 = getelementptr inbounds nuw %struct.TriggerDesc, ptr %46, i32 0, i32 1
  %48 = load i32, ptr %47, align 8
  %49 = icmp slt i32 %45, %48
  br i1 %49, label %50, label %120

50:                                               ; preds = %44
  call void @llvm.lifetime.start.p0(i64 8, ptr %10) #12
  %51 = load ptr, ptr %5, align 8
  %52 = getelementptr inbounds nuw %struct.TriggerDesc, ptr %51, i32 0, i32 0
  %53 = load ptr, ptr %52, align 8
  %54 = load i32, ptr %6, align 4
  %55 = sext i32 %54 to i64
  %56 = getelementptr inbounds %struct.Trigger, ptr %53, i64 %55
  store ptr %56, ptr %10, align 8
  call void @llvm.lifetime.start.p0(i64 8, ptr %11) #12
  %57 = load ptr, ptr %10, align 8
  %58 = getelementptr inbounds nuw %struct.Trigger, ptr %57, i32 0, i32 3
  %59 = load i16, ptr %58, align 4
  %60 = sext i16 %59 to i32
  %61 = and i32 %60, 83
  %62 = icmp eq i32 %61, 18
  br i1 %62, label %64, label %63

63:                                               ; preds = %50
  store i32 4, ptr %9, align 4
  br label %114

64:                                               ; preds = %50
  %65 = load ptr, ptr %3, align 8
  %66 = load ptr, ptr %4, align 8
  %67 = load ptr, ptr %10, align 8
  %68 = getelementptr inbounds nuw %struct.TriggerData, ptr %7, i32 0, i32 1
  %69 = load i32, ptr %68, align 4
  %70 = load ptr, ptr %8, align 8
  %71 = call zeroext i1 @TriggerEnabled(ptr noundef %65, ptr noundef %66, ptr noundef %67, i32 noundef %69, ptr noundef %70, ptr noundef null, ptr noundef null)
  br i1 %71, label %73, label %72

72:                                               ; preds = %64
  store i32 4, ptr %9, align 4
  br label %114

73:                                               ; preds = %64
  %74 = load ptr, ptr %10, align 8
  %75 = getelementptr inbounds nuw %struct.TriggerData, ptr %7, i32 0, i32 5
  store ptr %74, ptr %75, align 8
  %76 = load i32, ptr %6, align 4
  %77 = load ptr, ptr %4, align 8
  %78 = getelementptr inbounds nuw %struct.ResultRelInfo, ptr %77, i32 0, i32 15
  %79 = load ptr, ptr %78, align 8
  %80 = load ptr, ptr %4, align 8
  %81 = getelementptr inbounds nuw %struct.ResultRelInfo, ptr %80, i32 0, i32 17
  %82 = load ptr, ptr %81, align 8
  %83 = load ptr, ptr %3, align 8
  %84 = getelementptr inbounds nuw %struct.EState, ptr %83, i32 0, i32 35
  %85 = load ptr, ptr %84, align 8
  %86 = icmp ne ptr %85, null
  br i1 %86, label %87, label %91

87:                                               ; preds = %73
  %88 = load ptr, ptr %3, align 8
  %89 = getelementptr inbounds nuw %struct.EState, ptr %88, i32 0, i32 35
  %90 = load ptr, ptr %89, align 8
  br label %94

91:                                               ; preds = %73
  %92 = load ptr, ptr %3, align 8
  %93 = call ptr @MakePerTupleExprContext(ptr noundef %92)
  br label %94

94:                                               ; preds = %91, %87
  %95 = phi ptr [ %90, %87 ], [ %93, %91 ]
  %96 = getelementptr inbounds nuw %struct.ExprContext, ptr %95, i32 0, i32 5
  %97 = load ptr, ptr %96, align 8
  %98 = call ptr @ExecCallTriggerFunc(ptr noundef %7, i32 noundef %76, ptr noundef %79, ptr noundef %82, ptr noundef %97)
  store ptr %98, ptr %11, align 8
  %99 = load ptr, ptr %11, align 8
  %100 = icmp ne ptr %99, null
  br i1 %100, label %101, label %113

101:                                              ; preds = %94
  br label %102

102:                                              ; preds = %101
  br i1 true, label %103, label %105

103:                                              ; preds = %102
  %104 = call zeroext i1 @errstart_cold(i32 noundef 21, ptr noundef null) #13
  br i1 %104, label %107, label %110

105:                                              ; preds = %102
  %106 = call zeroext i1 @errstart(i32 noundef 21, ptr noundef null)
  br i1 %106, label %107, label %110

107:                                              ; preds = %105, %103
  %108 = call i32 @errcode(i32 noundef 16908867)
  %109 = call i32 (ptr, ...) @errmsg(ptr noundef @.str.62)
  call void @errfinish(ptr noundef @.str.2, i32 noundef 2918, ptr noundef @__func__.ExecBSUpdateTriggers)
  br label %110

110:                                              ; preds = %107, %105, %103
  unreachable

111:                                              ; No predecessors!
  br label %112

112:                                              ; preds = %111
  br label %113

113:                                              ; preds = %112, %94
  store i32 0, ptr %9, align 4
  br label %114

114:                                              ; preds = %113, %72, %63
  call void @llvm.lifetime.end.p0(i64 8, ptr %11) #12
  call void @llvm.lifetime.end.p0(i64 8, ptr %10) #12
  %115 = load i32, ptr %9, align 4
  switch i32 %115, label %124 [
    i32 0, label %116
    i32 4, label %117
  ]

116:                                              ; preds = %114
  br label %117

117:                                              ; preds = %116, %114
  %118 = load i32, ptr %6, align 4
  %119 = add i32 %118, 1
  store i32 %119, ptr %6, align 4
  br label %44, !llvm.loop !39

120:                                              ; preds = %44
  store i32 0, ptr %9, align 4
  br label %121

121:                                              ; preds = %120, %31, %23, %17
  call void @llvm.lifetime.end.p0(i64 8, ptr %8) #12
  call void @llvm.lifetime.end.p0(i64 80, ptr %7) #12
  call void @llvm.lifetime.end.p0(i64 4, ptr %6) #12
  call void @llvm.lifetime.end.p0(i64 8, ptr %5) #12
  %122 = load i32, ptr %9, align 4
  switch i32 %122, label %124 [
    i32 0, label %123
    i32 1, label %123
  ]

123:                                              ; preds = %121, %121
  ret void

124:                                              ; preds = %121, %114
  unreachable
}