; Function Attrs: nounwind uwtable
define dso_local void @ExecBSUpdateTriggers(ptr noundef %0, ptr noundef %1) local_unnamed_addr #0 {
  %3 = alloca %struct.TriggerData, align 8
  call void @llvm.lifetime.start.p0(i64 80, ptr nonnull %3) #16
  %4 = getelementptr inbounds nuw i8, ptr %3, i64 16
  call void @llvm.memset.p0.i64(ptr noundef nonnull align 8 dereferenceable(80) %4, i8 0, i64 56, i1 false)
  %5 = getelementptr inbounds nuw i8, ptr %1, i64 96
  %6 = load ptr, ptr %5, align 8
  %7 = icmp eq ptr %6, null
  br i1 %7, label %.loopexit, label %8

8:                                                ; preds = %2
  %9 = getelementptr inbounds nuw i8, ptr %6, i64 20
  %10 = load i8, ptr %9, align 4, !range !4, !noundef !5
  %11 = trunc nuw i8 %10 to i1
  br i1 %11, label %12, label %.loopexit

12:                                               ; preds = %8
  %13 = getelementptr inbounds nuw i8, ptr %1, i64 8
  %14 = load ptr, ptr %13, align 8
  %15 = getelementptr inbounds nuw i8, ptr %14, i64 72
  %16 = load i32, ptr %15, align 8
  %17 = tail call fastcc zeroext i1 @before_stmt_triggers_fired(i32 noundef %16, i32 noundef 2)
  br i1 %17, label %.loopexit, label %18

18:                                               ; preds = %12
  %19 = tail call ptr @ExecGetAllUpdatedCols(ptr noundef nonnull %1, ptr noundef %0) #16
  store i32 441, ptr %3, align 8
  %20 = getelementptr inbounds nuw i8, ptr %3, i64 4
  store i32 10, ptr %20, align 4
  %21 = load ptr, ptr %13, align 8
  %22 = getelementptr inbounds nuw i8, ptr %3, i64 8
  store ptr %21, ptr %22, align 8
  %23 = getelementptr inbounds nuw i8, ptr %3, i64 72
  store ptr %19, ptr %23, align 8
  %24 = getelementptr inbounds nuw i8, ptr %6, i64 8
  %25 = load i32, ptr %24, align 8
  %26 = icmp sgt i32 %25, 0
  br i1 %26, label %.lr.ph, label %.loopexit

.lr.ph:                                           ; preds = %18
  %27 = getelementptr inbounds nuw i8, ptr %3, i64 32
  %28 = getelementptr inbounds nuw i8, ptr %1, i64 104
  %29 = getelementptr inbounds nuw i8, ptr %1, i64 120
  %30 = getelementptr inbounds nuw i8, ptr %0, i64 264
  br label %31

31:                                               ; preds = %.lr.ph, %57
  %indvars.iv = phi i64 [ 0, %.lr.ph ], [ %indvars.iv.next, %57 ]
  %32 = load ptr, ptr %6, align 8
  %33 = getelementptr inbounds nuw %struct.Trigger, ptr %32, i64 %indvars.iv
  %34 = getelementptr inbounds nuw i8, ptr %33, i64 20
  %35 = load i16, ptr %34, align 4
  %36 = and i16 %35, 83
  %37 = icmp eq i16 %36, 18
  br i1 %37, label %38, label %57

38:                                               ; preds = %31
  %39 = load i32, ptr %20, align 4
  %40 = call fastcc zeroext i1 @TriggerEnabled(ptr noundef %0, ptr noundef nonnull %1, ptr noundef nonnull %33, i32 noundef %39, ptr noundef %19, ptr noundef null, ptr noundef null)
  br i1 %40, label %41, label %57

41:                                               ; preds = %38
  store ptr %33, ptr %27, align 8
  %42 = load ptr, ptr %28, align 8
  %43 = load ptr, ptr %29, align 8
  %44 = load ptr, ptr %30, align 8
  %.not = icmp eq ptr %44, null
  br i1 %.not, label %45, label %47

45:                                               ; preds = %41
  %46 = call ptr @MakePerTupleExprContext(ptr noundef nonnull %0) #16
  br label %47

47:                                               ; preds = %41, %45
  %48 = phi ptr [ %46, %45 ], [ %44, %41 ]
  %49 = getelementptr inbounds nuw i8, ptr %48, i64 40
  %50 = load ptr, ptr %49, align 8
  %51 = trunc nuw nsw i64 %indvars.iv to i32
  %52 = call fastcc ptr @ExecCallTriggerFunc(ptr noundef %3, i32 noundef %51, ptr noundef %42, ptr noundef %43, ptr noundef %50)
  %.not27 = icmp eq ptr %52, null
  br i1 %.not27, label %57, label %53

53:                                               ; preds = %47
  %54 = call zeroext i1 @errstart_cold(i32 noundef 21, ptr noundef null) #17
  call void @llvm.assume(i1 %54)
  %55 = call i32 @errcode(i32 noundef 16908867) #16
  %56 = call i32 (ptr, ...) @errmsg(ptr noundef nonnull @.str.62) #16
  call void @errfinish(ptr noundef nonnull @.str.2, i32 noundef 2918, ptr noundef nonnull @__func__.ExecBSUpdateTriggers) #16
  unreachable

57:                                               ; preds = %47, %38, %31
  %indvars.iv.next = add nuw nsw i64 %indvars.iv, 1
  %58 = load i32, ptr %24, align 8
  %59 = sext i32 %58 to i64
  %60 = icmp slt i64 %indvars.iv.next, %59
  br i1 %60, label %31, label %.loopexit, !llvm.loop !38

.loopexit:                                        ; preds = %57, %18, %12, %8, %2
  call void @llvm.lifetime.end.p0(i64 80, ptr nonnull %3) #16
  ret void
}